; Function Attrs: mustprogress nofree norecurse nosync nounwind willreturn memory(read, inaccessiblemem: none) uwtable
define zeroext i8 @stbtt__buf_peek8(ptr noundef readonly captures(none) %0) local_unnamed_addr #1 {
  %2 = getelementptr inbounds nuw i8, ptr %0, i64 8
  %3 = load i32, ptr %2, align 8, !tbaa !3
  %4 = getelementptr inbounds nuw i8, ptr %0, i64 12
  %5 = load i32, ptr %4, align 4, !tbaa !10
  %.not = icmp slt i32 %3, %5
  br i1 %.not, label %6, label %11

6:                                                ; preds = %1
  %7 = load ptr, ptr %0, align 8, !tbaa !11
  %8 = sext i32 %3 to i64
  %9 = getelementptr inbounds i8, ptr %7, i64 %8
  %10 = load i8, ptr %9, align 1, !tbaa !12
  br label %11

11:                                               ; preds = %1, %6
  %.0 = phi i8 [ %10, %6 ], [ 0, %1 ]
  ret i8 %.0
}